; Function Attrs: mustprogress nofree norecurse nosync nounwind willreturn memory(readwrite, inaccessiblemem: none) uwtable
define internal void @ext_sni_init(ptr noundef readonly captures(none) %0) #14 {
  %2 = getelementptr inbounds nuw i8, ptr %0, i64 80
  %3 = load ptr, ptr %2, align 8, !tbaa !58
  %4 = getelementptr inbounds nuw i8, ptr %3, i64 462
  %5 = load i8, ptr %4, align 2
  %6 = and i8 %5, -2
  store i8 %6, ptr %4, align 2
  ret void
}